target datalayout = "e-m:e-p270:32:32-p271:32:32-p272:64:64-i64:64-i128:128-f80:128-n8:16:32:64-S128"
target triple = "x86_64-pc-linux-gnu"

@.str.5 = private unnamed_addr constant [33 x i8] c"../openssl/crypto/x509/v3_crld.c\00", align 1
@__func__.gnames_from_sectname = private unnamed_addr constant [21 x i8] c"gnames_from_sectname\00", align 1

; Function Attrs: inlinehint nounwind uwtable
define internal ptr @ossl_check_CONF_VALUE_freefunc_type(ptr noundef %0) #3 {
  %2 = alloca ptr, align 8
  store ptr %0, ptr %2, align 8, !tbaa !20
  %3 = load ptr, ptr %2, align 8, !tbaa !20
  ret ptr %3
}

; Function Attrs: inlinehint nounwind uwtable
define internal ptr @ossl_check_CONF_VALUE_sk_type(ptr noundef %0) #3 {
  %2 = alloca ptr, align 8
  store ptr %0, ptr %2, align 8, !tbaa !10
  %3 = load ptr, ptr %2, align 8, !tbaa !10
  ret ptr %3
}

; Function Attrs: nounwind uwtable
define internal ptr @gnames_from_sectname(ptr noundef %0, ptr noundef %1) #0 {
  %3 = alloca ptr, align 8
  %4 = alloca ptr, align 8
  %5 = alloca ptr, align 8
  %6 = alloca ptr, align 8
  %7 = alloca ptr, align 8
  %8 = alloca i32, align 4
  store ptr %0, ptr %4, align 8, !tbaa !8
  store ptr %1, ptr %5, align 8, !tbaa !57
  call void @llvm.lifetime.start.p0(i64 8, ptr %6) #5
  call void @llvm.lifetime.start.p0(i64 8, ptr %7) #5
  %9 = load ptr, ptr %5, align 8, !tbaa !57
  %10 = load i8, ptr %9, align 1, !tbaa !31
  %11 = sext i8 %10 to i32
  %12 = icmp eq i32 %11, 64
  br i1 %12, label %13, label %18

13:                                               ; preds = %2
  %14 = load ptr, ptr %4, align 8, !tbaa !8
  %15 = load ptr, ptr %5, align 8, !tbaa !57
  %16 = getelementptr inbounds i8, ptr %15, i64 1
  %17 = call ptr @X509V3_get_section(ptr noundef %14, ptr noundef %16)
  store ptr %17, ptr %6, align 8, !tbaa !10
  br label %21

18:                                               ; preds = %2
  %19 = load ptr, ptr %5, align 8, !tbaa !57
  %20 = call ptr @X509V3_parse_list(ptr noundef %19)
  store ptr %20, ptr %6, align 8, !tbaa !10
  br label %21

21:                                               ; preds = %18, %13
  %22 = load ptr, ptr %6, align 8, !tbaa !10
  %23 = icmp ne ptr %22, null
  br i1 %23, label %25, label %24

24:                                               ; preds = %21
  call void @ERR_new()
  call void @ERR_set_debug(ptr noundef @.str.5, i32 noundef 56, ptr noundef @__func__.gnames_from_sectname)
  call void (i32, i32, ptr, ...) @ERR_set_error(i32 noundef 34, i32 noundef 150, ptr noundef null)
  store ptr null, ptr %3, align 8
  store i32 1, ptr %8, align 4
  br label %42

25:                                               ; preds = %21
  %26 = load ptr, ptr %4, align 8, !tbaa !8
  %27 = load ptr, ptr %6, align 8, !tbaa !10
  %28 = call ptr @v2i_GENERAL_NAMES(ptr noundef null, ptr noundef %26, ptr noundef %27)
  store ptr %28, ptr %7, align 8, !tbaa !12
  %29 = load ptr, ptr %5, align 8, !tbaa !57
  %30 = load i8, ptr %29, align 1, !tbaa !31
  %31 = sext i8 %30 to i32
  %32 = icmp eq i32 %31, 64
  br i1 %32, label %33, label %36

33:                                               ; preds = %25
  %34 = load ptr, ptr %4, align 8, !tbaa !8
  %35 = load ptr, ptr %6, align 8, !tbaa !10
  call void @X509V3_section_free(ptr noundef %34, ptr noundef %35)
  br label %40

36:                                               ; preds = %25
  %37 = load ptr, ptr %6, align 8, !tbaa !10
  %38 = call ptr @ossl_check_CONF_VALUE_sk_type(ptr noundef %37)
  %39 = call ptr @ossl_check_CONF_VALUE_freefunc_type(ptr noundef @X509V3_conf_free)
  call void @OPENSSL_sk_pop_free(ptr noundef %38, ptr noundef %39)
  br label %40

40:                                               ; preds = %36, %33
  %41 = load ptr, ptr %7, align 8, !tbaa !12
  store ptr %41, ptr %3, align 8
  store i32 1, ptr %8, align 4
  br label %42

42:                                               ; preds = %40, %24
  call void @llvm.lifetime.end.p0(i64 8, ptr %7) #5
  call void @llvm.lifetime.end.p0(i64 8, ptr %6) #5
  %43 = load ptr, ptr %3, align 8
  ret ptr %43
}