; Function Attrs: nounwind uwtable
define internal fastcc ptr @gnames_from_sectname(ptr noundef %0, ptr noundef %1) unnamed_addr #1 {
  %3 = load i8, ptr %1, align 1, !tbaa !19
  %4 = icmp eq i8 %3, 64
  br i1 %4, label %5, label %8

5:                                                ; preds = %2
  %6 = getelementptr inbounds nuw i8, ptr %1, i64 1
  %7 = tail call ptr @X509V3_get_section(ptr noundef %0, ptr noundef nonnull %6) #5
  br label %10

8:                                                ; preds = %2
  %9 = tail call ptr @X509V3_parse_list(ptr noundef nonnull %1) #5
  br label %10

10:                                               ; preds = %8, %5
  %.013 = phi ptr [ %7, %5 ], [ %9, %8 ]
  %.not = icmp eq ptr %.013, null
  br i1 %.not, label %11, label %12

11:                                               ; preds = %10
  tail call void @ERR_new() #5
  tail call void @ERR_set_debug(ptr noundef nonnull @.str.5, i32 noundef 56, ptr noundef nonnull @__func__.gnames_from_sectname) #5
  tail call void (i32, i32, ptr, ...) @ERR_set_error(i32 noundef 34, i32 noundef 150, ptr noundef null) #5
  br label %18

12:                                               ; preds = %10
  %13 = tail call ptr @v2i_GENERAL_NAMES(ptr noundef null, ptr noundef %0, ptr noundef nonnull %.013) #5
  %14 = load i8, ptr %1, align 1, !tbaa !19
  %15 = icmp eq i8 %14, 64
  br i1 %15, label %16, label %17

16:                                               ; preds = %12
  tail call void @X509V3_section_free(ptr noundef %0, ptr noundef nonnull %.013) #5
  br label %18

17:                                               ; preds = %12
  tail call void @OPENSSL_sk_pop_free(ptr noundef nonnull %.013, ptr noundef nonnull @X509V3_conf_free) #5
  br label %18

18:                                               ; preds = %16, %17, %11
  %.0 = phi ptr [ null, %11 ], [ %13, %17 ], [ %13, %16 ]
  ret ptr %.0
}